target datalayout = "e-m:e-p270:32:32-p271:32:32-p272:64:64-i64:64-i128:128-f80:128-n8:16:32:64-S128"
target triple = "x86_64-pc-linux-gnu"

; Function Attrs: nounwind uwtable
define i32 @ASN1_item_verify_ex(ptr noundef %0, ptr noundef %1, ptr noundef %2, ptr noundef %3, ptr noundef %4, ptr noundef %5, ptr noundef %6, ptr noundef %7) #0 {
  %9 = alloca ptr, align 8
  %10 = alloca ptr, align 8
  %11 = alloca ptr, align 8
  %12 = alloca ptr, align 8
  %13 = alloca ptr, align 8
  %14 = alloca ptr, align 8
  %15 = alloca ptr, align 8
  %16 = alloca ptr, align 8
  %17 = alloca ptr, align 8
  %18 = alloca i32, align 4
  store ptr %0, ptr %9, align 8, !tbaa !31
  store ptr %1, ptr %10, align 8, !tbaa !7
  store ptr %2, ptr %11, align 8, !tbaa !9
  store ptr %3, ptr %12, align 8, !tbaa !3
  store ptr %4, ptr %13, align 8, !tbaa !9
  store ptr %5, ptr %14, align 8, !tbaa !13
  store ptr %6, ptr %15, align 8, !tbaa !33
  store ptr %7, ptr %16, align 8, !tbaa !11
  call void @llvm.lifetime.start.p0(i64 8, ptr %17) #3
  call void @llvm.lifetime.start.p0(i64 4, ptr %18) #3
  store i32 -1, ptr %18, align 4, !tbaa !17
  %19 = load ptr, ptr %14, align 8, !tbaa !13
  %20 = load ptr, ptr %13, align 8, !tbaa !9
  %21 = load ptr, ptr %15, align 8, !tbaa !33
  %22 = load ptr, ptr %16, align 8, !tbaa !11
  %23 = call ptr @evp_md_ctx_new_ex(ptr noundef %19, ptr noundef %20, ptr noundef %21, ptr noundef %22)
  store ptr %23, ptr %17, align 8, !tbaa !15
  %24 = icmp ne ptr %23, null
  br i1 %24, label %25, label %35

25:                                               ; preds = %8
  %26 = load ptr, ptr %9, align 8, !tbaa !31
  %27 = load ptr, ptr %10, align 8, !tbaa !7
  %28 = load ptr, ptr %11, align 8, !tbaa !9
  %29 = load ptr, ptr %12, align 8, !tbaa !3
  %30 = load ptr, ptr %17, align 8, !tbaa !15
  %31 = call i32 @ASN1_item_verify_ctx(ptr noundef %26, ptr noundef %27, ptr noundef %28, ptr noundef %29, ptr noundef %30)
  store i32 %31, ptr %18, align 4, !tbaa !17
  %32 = load ptr, ptr %17, align 8, !tbaa !15
  %33 = call ptr @EVP_MD_CTX_get_pkey_ctx(ptr noundef %32)
  call void @EVP_PKEY_CTX_free(ptr noundef %33)
  %34 = load ptr, ptr %17, align 8, !tbaa !15
  call void @EVP_MD_CTX_free(ptr noundef %34)
  br label %35

35:                                               ; preds = %25, %8
  %36 = load i32, ptr %18, align 4, !tbaa !17
  call void @llvm.lifetime.end.p0(i64 4, ptr %18) #3
  call void @llvm.lifetime.end.p0(i64 8, ptr %17) #3
  ret i32 %36
}