; Function Attrs: nounwind uwtable
define range(i32 -2147483648, 2) i32 @ASN1_item_verify_ex(ptr noundef %0, ptr noundef %1, ptr noundef %2, ptr noundef %3, ptr noundef %4, ptr noundef %5, ptr noundef %6, ptr noundef %7) local_unnamed_addr #0 {
  %9 = tail call ptr @evp_md_ctx_new_ex(ptr noundef %5, ptr noundef %4, ptr noundef %6, ptr noundef %7) #3
  %.not = icmp eq ptr %9, null
  br i1 %.not, label %13, label %10

10:                                               ; preds = %8
  %11 = tail call i32 @ASN1_item_verify_ctx(ptr noundef %0, ptr noundef %1, ptr noundef %2, ptr noundef %3, ptr noundef nonnull %9)
  %12 = tail call ptr @EVP_MD_CTX_get_pkey_ctx(ptr noundef nonnull %9) #3
  tail call void @EVP_PKEY_CTX_free(ptr noundef %12) #3
  tail call void @EVP_MD_CTX_free(ptr noundef nonnull %9) #3
  br label %13

13:                                               ; preds = %10, %8
  %.0 = phi i32 [ %11, %10 ], [ -1, %8 ]
  ret i32 %.0
}